target datalayout = "e-m:e-p270:32:32-p271:32:32-p272:64:64-i64:64-i128:128-f80:128-n8:16:32:64-S128"
target triple = "x86_64-pc-linux-gnu"

%struct.tvbuff = type { ptr, ptr, i8, i32, ptr, ptr, i32, i32, i32, i32 }
%struct.tvb_subset = type { %struct.tvbuff, %struct.tvb_backing_t }
%struct.tvb_backing_t = type { ptr, i32, i32 }

; Function Attrs: null_pointer_is_valid sspstrong uwtable
define internal ptr @subset_memcpy(ptr noundef %0, ptr noundef %1, i32 noundef %2, i32 noundef %3) #0 {
  %5 = alloca ptr, align 8
  %6 = alloca ptr, align 8
  %7 = alloca i32, align 4
  %8 = alloca i32, align 4
  %9 = alloca ptr, align 8
  store ptr %0, ptr %5, align 8
  store ptr %1, ptr %6, align 8
  store i32 %2, ptr %7, align 4
  store i32 %3, ptr %8, align 4
  call void @llvm.lifetime.start.p0(i64 8, ptr %9) #4
  %10 = load ptr, ptr %5, align 8
  store ptr %10, ptr %9, align 8
  %11 = load ptr, ptr %9, align 8
  %12 = getelementptr inbounds nuw %struct.tvb_subset, ptr %11, i32 0, i32 1
  %13 = getelementptr inbounds nuw %struct.tvb_backing_t, ptr %12, i32 0, i32 0
  %14 = load ptr, ptr %13, align 8
  %15 = load ptr, ptr %6, align 8
  %16 = load ptr, ptr %9, align 8
  %17 = getelementptr inbounds nuw %struct.tvb_subset, ptr %16, i32 0, i32 1
  %18 = getelementptr inbounds nuw %struct.tvb_backing_t, ptr %17, i32 0, i32 1
  %19 = load i32, ptr %18, align 8
  %20 = load i32, ptr %7, align 4
  %21 = add i32 %19, %20
  %22 = load i32, ptr %8, align 4
  %23 = zext i32 %22 to i64
  %24 = call ptr @tvb_memcpy(ptr noundef %14, ptr noundef %15, i32 noundef %21, i64 noundef %23)
  call void @llvm.lifetime.end.p0(i64 8, ptr %9) #4
  ret ptr %24
}