; Function Attrs: null_pointer_is_valid sspstrong uwtable
define internal ptr @subset_memcpy(ptr noundef readonly captures(none) %0, ptr noundef %1, i32 noundef %2, i32 noundef %3) #0 {
  %5 = getelementptr inbounds nuw i8, ptr %0, i64 56
  %6 = load ptr, ptr %5, align 8
  %7 = getelementptr inbounds nuw i8, ptr %0, i64 64
  %8 = load i32, ptr %7, align 8
  %9 = add i32 %8, %2
  %10 = zext i32 %3 to i64
  %11 = tail call ptr @tvb_memcpy(ptr noundef %6, ptr noundef %1, i32 noundef %9, i64 noundef %10)
  ret ptr %11
}